; Function Attrs: mustprogress uwtable
define dso_local noundef zeroext i1 @_ZN3net19QuicStreamSequencer16MaybeCloseStreamEv(ptr noundef nonnull align 8 dereferenceable(169) %this) local_unnamed_addr #0 align 2 {
entry:
  %blocked_ = getelementptr inbounds i8, ptr %this, i64 144
  %0 = load i8, ptr %blocked_, align 8
  %1 = and i8 %0, 1
  %tobool.not = icmp eq i8 %1, 0
  br i1 %tobool.not, label %lor.lhs.false, label %return

lor.lhs.false:                                    ; preds = %entry
  %buffered_frames_.i = getelementptr inbounds i8, ptr %this, i64 16
  %call.i = tail call noundef i64 @_ZNK3net25QuicStreamSequencerBuffer13BytesConsumedEv(ptr noundef nonnull align 8 dereferenceable(120) %buffered_frames_.i)
  %close_offset_.i = getelementptr inbounds i8, ptr %this, i64 136
  %2 = load i64, ptr %close_offset_.i, align 8
  %cmp.i.not = icmp ult i64 %call.i, %2
  br i1 %cmp.i.not, label %return, label %if.end

if.end:                                           ; preds = %lor.lhs.false
  %ignore_read_data_ = getelementptr inbounds i8, ptr %this, i64 168
  %3 = load i8, ptr %ignore_read_data_, align 8
  %4 = and i8 %3, 1
  %tobool2.not = icmp eq i8 %4, 0
  %stream_4 = getelementptr inbounds i8, ptr %this, i64 8
  %5 = load ptr, ptr %stream_4, align 8
  br i1 %tobool2.not, label %if.else, label %if.then3

if.then3:                                         ; preds = %if.end
  tail call void @_ZN3net18ReliableQuicStream9OnFinReadEv(ptr noundef nonnull align 8 dereferenceable(377) %5)
  br label %if.end5

if.else:                                          ; preds = %if.end
  %vtable = load ptr, ptr %5, align 8
  %vfn = getelementptr inbounds i8, ptr %vtable, i64 56
  %6 = load ptr, ptr %vfn, align 8
  tail call void %6(ptr noundef nonnull align 8 dereferenceable(377) %5)
  br label %if.end5

if.end5:                                          ; preds = %if.else, %if.then3
  tail call void @_ZN3net25QuicStreamSequencerBuffer5ClearEv(ptr noundef nonnull align 8 dereferenceable(120) %buffered_frames_.i)
  br label %return

return:                                           ; preds = %entry, %lor.lhs.false, %if.end5
  %retval.0 = phi i1 [ true, %if.end5 ], [ false, %lor.lhs.false ], [ false, %entry ]
  ret i1 %retval.0
}